target datalayout = "e-m:e-p270:32:32-p271:32:32-p272:64:64-i64:64-i128:128-f80:128-n8:16:32:64-S128"
target triple = "x86_64-pc-linux-gnu"

; Function Attrs: nounwind uwtable
define internal i32 @fd_gets(ptr noundef %0, ptr noundef %1, i32 noundef %2) #0 {
  %4 = alloca ptr, align 8
  %5 = alloca ptr, align 8
  %6 = alloca i32, align 4
  %7 = alloca i32, align 4
  %8 = alloca ptr, align 8
  %9 = alloca ptr, align 8
  store ptr %0, ptr %4, align 8, !tbaa !7
  store ptr %1, ptr %5, align 8, !tbaa !10
  store i32 %2, ptr %6, align 4, !tbaa !3
  call void @llvm.lifetime.start.p0(i64 4, ptr %7) #6
  store i32 0, ptr %7, align 4, !tbaa !3
  call void @llvm.lifetime.start.p0(i64 8, ptr %8) #6
  %10 = load ptr, ptr %5, align 8, !tbaa !10
  store ptr %10, ptr %8, align 8, !tbaa !10
  call void @llvm.lifetime.start.p0(i64 8, ptr %9) #6
  %11 = load ptr, ptr %5, align 8, !tbaa !10
  %12 = load i32, ptr %6, align 4, !tbaa !3
  %13 = sext i32 %12 to i64
  %14 = getelementptr inbounds i8, ptr %11, i64 %13
  %15 = getelementptr inbounds i8, ptr %14, i64 -1
  store ptr %15, ptr %9, align 8, !tbaa !10
  br label %16

16:                                               ; preds = %34, %3
  %17 = load ptr, ptr %8, align 8, !tbaa !10
  %18 = load ptr, ptr %9, align 8, !tbaa !10
  %19 = icmp ult ptr %17, %18
  br i1 %19, label %20, label %25

20:                                               ; preds = %16
  %21 = load ptr, ptr %4, align 8, !tbaa !7
  %22 = load ptr, ptr %8, align 8, !tbaa !10
  %23 = call i32 @fd_read(ptr noundef %21, ptr noundef %22, i32 noundef 1)
  %24 = icmp sgt i32 %23, 0
  br label %25

25:                                               ; preds = %20, %16
  %26 = phi i1 [ false, %16 ], [ %24, %20 ]
  br i1 %26, label %27, label %35

27:                                               ; preds = %25
  %28 = load ptr, ptr %8, align 8, !tbaa !10
  %29 = getelementptr inbounds nuw i8, ptr %28, i32 1
  store ptr %29, ptr %8, align 8, !tbaa !10
  %30 = load i8, ptr %28, align 1, !tbaa !21
  %31 = sext i8 %30 to i32
  %32 = icmp eq i32 %31, 10
  br i1 %32, label %33, label %34

33:                                               ; preds = %27
  br label %35

34:                                               ; preds = %27
  br label %16, !llvm.loop !22

35:                                               ; preds = %33, %25
  %36 = load ptr, ptr %8, align 8, !tbaa !10
  %37 = getelementptr inbounds i8, ptr %36, i64 0
  store i8 0, ptr %37, align 1, !tbaa !21
  %38 = load ptr, ptr %5, align 8, !tbaa !10
  %39 = getelementptr inbounds i8, ptr %38, i64 0
  %40 = load i8, ptr %39, align 1, !tbaa !21
  %41 = sext i8 %40 to i32
  %42 = icmp ne i32 %41, 0
  br i1 %42, label %43, label %47

43:                                               ; preds = %35
  %44 = load ptr, ptr %5, align 8, !tbaa !10
  %45 = call i64 @strlen(ptr noundef %44) #8
  %46 = trunc i64 %45 to i32
  store i32 %46, ptr %7, align 4, !tbaa !3
  br label %47

47:                                               ; preds = %43, %35
  %48 = load i32, ptr %7, align 4, !tbaa !3
  call void @llvm.lifetime.end.p0(i64 8, ptr %9) #6
  call void @llvm.lifetime.end.p0(i64 8, ptr %8) #6
  call void @llvm.lifetime.end.p0(i64 4, ptr %7) #6
  ret i32 %48
}