; Function Attrs: nounwind uwtable
define internal i32 @fd_gets(ptr noundef %0, ptr noundef captures(address) %1, i32 noundef %2) #1 {
  %4 = sext i32 %2 to i64
  %5 = getelementptr inbounds i8, ptr %1, i64 %4
  %6 = getelementptr inbounds i8, ptr %5, i64 -1
  br label %7

7:                                                ; preds = %12, %3
  %.011 = phi ptr [ %1, %3 ], [ %13, %12 ]
  %8 = icmp ult ptr %.011, %6
  br i1 %8, label %9, label %.critedge

9:                                                ; preds = %7
  %10 = tail call i32 @fd_read(ptr noundef %0, ptr noundef %.011, i32 noundef 1)
  %11 = icmp sgt i32 %10, 0
  br i1 %11, label %12, label %.critedge

12:                                               ; preds = %9
  %13 = getelementptr inbounds nuw i8, ptr %.011, i64 1
  %14 = load i8, ptr %.011, align 1, !tbaa !19
  %15 = icmp eq i8 %14, 10
  br i1 %15, label %.critedge, label %7, !llvm.loop !20

.critedge:                                        ; preds = %7, %12, %9
  %.1 = phi ptr [ %13, %12 ], [ %.011, %9 ], [ %.011, %7 ]
  store i8 0, ptr %.1, align 1, !tbaa !19
  %16 = load i8, ptr %1, align 1, !tbaa !19
  %.not = icmp eq i8 %16, 0
  br i1 %.not, label %20, label %17

17:                                               ; preds = %.critedge
  %18 = tail call i64 @strlen(ptr noundef nonnull dereferenceable(1) %1) #11
  %19 = trunc i64 %18 to i32
  br label %20

20:                                               ; preds = %17, %.critedge
  %.0 = phi i32 [ %19, %17 ], [ 0, %.critedge ]
  ret i32 %.0
}